target datalayout = "e-m:e-p270:32:32-p271:32:32-p272:64:64-i64:64-i128:128-f80:128-n8:16:32:64-S128"
target triple = "x86_64-pc-linux-gnu"

%"struct.DispersionCorrection::InteractionParams" = type { %"class.std::unique_ptr", float, float, float, float, float, float }
%"class.std::unique_ptr" = type { %"struct.std::__uniq_ptr_data" }
%"struct.std::__uniq_ptr_data" = type { %"class.std::__uniq_ptr_impl" }
%"class.std::__uniq_ptr_impl" = type { %"class.std::tuple" }
%"class.std::tuple" = type { %"struct.std::_Tuple_impl" }
%"struct.std::_Tuple_impl" = type { %"struct.std::_Head_base.1" }
%"struct.std::_Head_base.1" = type { ptr }
%struct.t_inputrec = type { i32, i32, i64, i32, i64, i32, i32, i32, i32, i32, i32, i32, i32, i32, i32, i32, double, double, i8, %"class.std::vector.53", float, float, float, i32, i32, i32, i32, float, float, i32, float, i32, i32, i8, i8, i32, float, i32, i32, i8, %struct.PressureCouplingOptions, %"class.std::vector.58", %"class.std::vector.58", i32, float, float, float, float, i32, i32, float, float, float, float, i8, i32, i32, float, float, i32, float, float, i32, %"class.std::unique_ptr.63", i8, %"class.std::unique_ptr.71", i8, %"class.std::unique_ptr.79", i32, float, i32, i8, i32, float, float, float, i32, float, float, i32, float, i32, i32, i32, i32, float, i32, i8, float, i64, i32, i32, float, [2 x i32], [2 x float], float, i8, %"class.std::unique_ptr.87", i8, %"class.std::unique_ptr.95", i8, %"class.std::unique_ptr.103", i32, ptr, i8, ptr, float, [3 x [3 x float]], i32, i32, i32, i32, float, float, float, float, %struct.t_grpopts, i8, i8, i8, i8, ptr, %"class.std::unique_ptr.111" }
%"class.std::vector.53" = type { %"struct.std::_Vector_base.54" }
%"struct.std::_Vector_base.54" = type { %"struct.std::_Vector_base<gmx::MtsLevel, std::allocator<gmx::MtsLevel>>::_Vector_impl" }
%"struct.std::_Vector_base<gmx::MtsLevel, std::allocator<gmx::MtsLevel>>::_Vector_impl" = type { %"struct.std::_Vector_base<gmx::MtsLevel, std::allocator<gmx::MtsLevel>>::_Vector_impl_data" }
%"struct.std::_Vector_base<gmx::MtsLevel, std::allocator<gmx::MtsLevel>>::_Vector_impl_data" = type { ptr, ptr, ptr }
%struct.PressureCouplingOptions = type { i32, i32, i32, float, [3 x [3 x float]], [3 x [3 x float]], i32 }
%"class.std::vector.58" = type { %"struct.std::_Vector_base.59" }
%"struct.std::_Vector_base.59" = type { %"struct.std::_Vector_base<gmx::BasicVector<float>, std::allocator<gmx::BasicVector<float>>>::_Vector_impl" }
%"struct.std::_Vector_base<gmx::BasicVector<float>, std::allocator<gmx::BasicVector<float>>>::_Vector_impl" = type { %"struct.std::_Vector_base<gmx::BasicVector<float>, std::allocator<gmx::BasicVector<float>>>::_Vector_impl_data" }
%"struct.std::_Vector_base<gmx::BasicVector<float>, std::allocator<gmx::BasicVector<float>>>::_Vector_impl_data" = type { ptr, ptr, ptr }
%"class.std::unique_ptr.63" = type { %"struct.std::__uniq_ptr_data.64" }
%"struct.std::__uniq_ptr_data.64" = type { %"class.std::__uniq_ptr_impl.65" }
%"class.std::__uniq_ptr_impl.65" = type { %"class.std::tuple.66" }
%"class.std::tuple.66" = type { %"struct.std::_Tuple_impl.67" }
%"struct.std::_Tuple_impl.67" = type { %"struct.std::_Head_base.70" }
%"struct.std::_Head_base.70" = type { ptr }
%"class.std::unique_ptr.71" = type { %"struct.std::__uniq_ptr_data.72" }
%"struct.std::__uniq_ptr_data.72" = type { %"class.std::__uniq_ptr_impl.73" }
%"class.std::__uniq_ptr_impl.73" = type { %"class.std::tuple.74" }
%"class.std::tuple.74" = type { %"struct.std::_Tuple_impl.75" }
%"struct.std::_Tuple_impl.75" = type { %"struct.std::_Head_base.78" }
%"struct.std::_Head_base.78" = type { ptr }
%"class.std::unique_ptr.79" = type { %"struct.std::__uniq_ptr_data.80" }
%"struct.std::__uniq_ptr_data.80" = type { %"class.std::__uniq_ptr_impl.81" }
%"class.std::__uniq_ptr_impl.81" = type { %"class.std::tuple.82" }
%"class.std::tuple.82" = type { %"struct.std::_Tuple_impl.83" }
%"struct.std::_Tuple_impl.83" = type { %"struct.std::_Head_base.86" }
%"struct.std::_Head_base.86" = type { ptr }
%"class.std::unique_ptr.87" = type { %"struct.std::__uniq_ptr_data.88" }
%"struct.std::__uniq_ptr_data.88" = type { %"class.std::__uniq_ptr_impl.89" }
%"class.std::__uniq_ptr_impl.89" = type { %"class.std::tuple.90" }
%"class.std::tuple.90" = type { %"struct.std::_Tuple_impl.91" }
%"struct.std::_Tuple_impl.91" = type { %"struct.std::_Head_base.94" }
%"struct.std::_Head_base.94" = type { ptr }
%"class.std::unique_ptr.95" = type { %"struct.std::__uniq_ptr_data.96" }
%"struct.std::__uniq_ptr_data.96" = type { %"class.std::__uniq_ptr_impl.97" }
%"class.std::__uniq_ptr_impl.97" = type { %"class.std::tuple.98" }
%"class.std::tuple.98" = type { %"struct.std::_Tuple_impl.99" }
%"struct.std::_Tuple_impl.99" = type { %"struct.std::_Head_base.102" }
%"struct.std::_Head_base.102" = type { ptr }
%"class.std::unique_ptr.103" = type { %"struct.std::__uniq_ptr_data.104" }
%"struct.std::__uniq_ptr_data.104" = type { %"class.std::__uniq_ptr_impl.105" }
%"class.std::__uniq_ptr_impl.105" = type { %"class.std::tuple.106" }
%"class.std::tuple.106" = type { %"struct.std::_Tuple_impl.107" }
%"struct.std::_Tuple_impl.107" = type { %"struct.std::_Head_base.110" }
%"struct.std::_Head_base.110" = type { ptr }
%struct.t_grpopts = type <{ i32, i32, i32, i32, i32, [4 x i8], ptr, ptr, ptr, ptr, ptr, ptr, ptr, ptr, ptr, ptr, i32, [4 x i8] }>
%"class.std::unique_ptr.111" = type { %"struct.std::__uniq_ptr_data.112" }
%"struct.std::__uniq_ptr_data.112" = type { %"class.std::__uniq_ptr_impl.113" }
%"class.std::__uniq_ptr_impl.113" = type { %"class.std::tuple.114" }
%"class.std::tuple.114" = type { %"struct.std::_Tuple_impl.115" }
%"struct.std::_Tuple_impl.115" = type { %"struct.std::_Head_base.118" }
%"struct.std::_Head_base.118" = type { ptr }
%"class.DispersionCorrection::TopologyParams" = type { i32, float, %"struct.std::array", %"struct.std::array" }
%"struct.std::array" = type { [2 x float] }
%class.anon = type { i8 }
%class.DispersionCorrection = type { i32, i32, i32, %"class.DispersionCorrection::TopologyParams", %"struct.DispersionCorrection::InteractionParams" }

@.str = private unnamed_addr constant [136 x i8] c"generated/home/dtcxzyw/WorkSpace/Projects/compilers/llvm-opt-benchmark/bench/gromacs/gromacs/src/gromacs/mdlib/dispersioncorrection.cpp\00", align 1
@.str.9 = private unnamed_addr constant [14 x i8] c"tableFileName\00", align 1
@.str.10 = private unnamed_addr constant [23 x i8] c"Need a table file name\00", align 1
@_ZN20DispersionCorrection17InteractionParamsD1Ev = unnamed_addr alias void (ptr), ptr @_ZN20DispersionCorrection17InteractionParamsD2Ev
@_ZN20DispersionCorrection14TopologyParamsC1ERK10gmx_mtop_tRK10t_inputrecb = unnamed_addr alias void (ptr, ptr, ptr, i1), ptr @_ZN20DispersionCorrection14TopologyParamsC2ERK10gmx_mtop_tRK10t_inputrecb

; Function Attrs: mustprogress nounwind uwtable
define linkonce_odr void @_ZNSt10_Head_baseILm1ESt14default_deleteI12t_forcetableELb1EEC2Ev(ptr noundef nonnull align 1 dereferenceable(1) %0) unnamed_addr #0 comdat align 2 {
  %2 = alloca ptr, align 8
  store ptr %0, ptr %2, align 8, !tbaa !28
  ret void
}

; Function Attrs: mustprogress nounwind uwtable
define linkonce_odr void @_ZNSt10_Head_baseILm0EP12t_forcetableLb0EEC2Ev(ptr noundef nonnull align 8 dereferenceable(8) %0) unnamed_addr #0 comdat align 2 {
  %2 = alloca ptr, align 8
  store ptr %0, ptr %2, align 8, !tbaa !24
  %3 = load ptr, ptr %2, align 8
  %4 = getelementptr inbounds nuw %"struct.std::_Head_base.1", ptr %3, i32 0, i32 0
  store ptr null, ptr %4, align 8, !tbaa !420
  ret void
}

; Function Attrs: mustprogress uwtable
define linkonce_odr void @_ZNSt11_Tuple_implILm1EJSt14default_deleteI12t_forcetableEEEC2Ev(ptr noundef nonnull align 1 dereferenceable(1) %0) unnamed_addr #5 comdat align 2 {
  %2 = alloca ptr, align 8
  store ptr %0, ptr %2, align 8, !tbaa !26
  %3 = load ptr, ptr %2, align 8
  call void @_ZNSt10_Head_baseILm1ESt14default_deleteI12t_forcetableELb1EEC2Ev(ptr noundef nonnull align 1 dereferenceable(1) %3)
  ret void
}

; Function Attrs: noinline noreturn nounwind uwtable
define linkonce_odr hidden void @__clang_call_terminate(ptr noundef %0) #2 comdat {
  %2 = call ptr @__cxa_begin_catch(ptr %0) #16
  call void @_ZSt9terminatev() #17
  unreachable
}

; Function Attrs: mustprogress uwtable
define linkonce_odr void @_ZNSt11_Tuple_implILm0EJP12t_forcetableSt14default_deleteIS0_EEEC2Ev(ptr noundef nonnull align 8 dereferenceable(8) %0) unnamed_addr #5 comdat align 2 {
  %2 = alloca ptr, align 8
  store ptr %0, ptr %2, align 8, !tbaa !22
  %3 = load ptr, ptr %2, align 8
  call void @_ZNSt11_Tuple_implILm1EJSt14default_deleteI12t_forcetableEEEC2Ev(ptr noundef nonnull align 1 dereferenceable(1) %3)
  call void @_ZNSt10_Head_baseILm0EP12t_forcetableLb0EEC2Ev(ptr noundef nonnull align 8 dereferenceable(8) %3)
  ret void
}

; Function Attrs: mustprogress nounwind uwtable
define linkonce_odr void @_ZNSt5tupleIJP12t_forcetableSt14default_deleteIS0_EEEC2ILb1ETnNSt9enable_ifIXclsr17_TupleConstraintsIXT_ES1_S3_EE37__is_implicitly_default_constructibleEEbE4typeELb1EEEv(ptr noundef nonnull align 8 dereferenceable(8) %0) unnamed_addr #0 comdat align 2 personality ptr @__gxx_personality_v0 {
  %2 = alloca ptr, align 8
  store ptr %0, ptr %2, align 8, !tbaa !20
  %3 = load ptr, ptr %2, align 8
  invoke void @_ZNSt11_Tuple_implILm0EJP12t_forcetableSt14default_deleteIS0_EEEC2Ev(ptr noundef nonnull align 8 dereferenceable(8) %3)
          to label %4 unwind label %5

4:                                                ; preds = %1
  ret void

5:                                                ; preds = %1
  %6 = landingpad { ptr, i32 }
          catch ptr null
  %7 = extractvalue { ptr, i32 } %6, 0
  call void @__clang_call_terminate(ptr %7) #17
  unreachable
}

; Function Attrs: mustprogress nounwind uwtable
define linkonce_odr void @_ZNSt15__uniq_ptr_implI12t_forcetableSt14default_deleteIS0_EEC2Ev(ptr noundef nonnull align 8 dereferenceable(8) %0) unnamed_addr #0 comdat align 2 {
  %2 = alloca ptr, align 8
  store ptr %0, ptr %2, align 8, !tbaa !16
  %3 = load ptr, ptr %2, align 8
  %4 = getelementptr inbounds nuw %"class.std::__uniq_ptr_impl", ptr %3, i32 0, i32 0
  call void @_ZNSt5tupleIJP12t_forcetableSt14default_deleteIS0_EEEC2ILb1ETnNSt9enable_ifIXclsr17_TupleConstraintsIXT_ES1_S3_EE37__is_implicitly_default_constructibleEEbE4typeELb1EEEv(ptr noundef nonnull align 8 dereferenceable(8) %4) #16
  ret void
}

; Function Attrs: inlinehint mustprogress nounwind uwtable
define linkonce_odr void @_ZNSt15__uniq_ptr_dataI12t_forcetableSt14default_deleteIS0_ELb1ELb1EEC2Ev(ptr noundef nonnull align 8 dereferenceable(8) %0) unnamed_addr #7 comdat align 2 {
  %2 = alloca ptr, align 8
  store ptr %0, ptr %2, align 8, !tbaa !410
  %3 = load ptr, ptr %2, align 8
  call void @_ZNSt15__uniq_ptr_implI12t_forcetableSt14default_deleteIS0_EEC2Ev(ptr noundef nonnull align 8 dereferenceable(8) %3) #16
  ret void
}

; Function Attrs: mustprogress nounwind uwtable
define linkonce_odr void @_ZNSt10unique_ptrI12t_forcetableSt14default_deleteIS0_EEC2IS2_vEEv(ptr noundef nonnull align 8 dereferenceable(8) %0) unnamed_addr #0 comdat align 2 {
  %2 = alloca ptr, align 8
  store ptr %0, ptr %2, align 8, !tbaa !9
  %3 = load ptr, ptr %2, align 8
  %4 = getelementptr inbounds nuw %"class.std::unique_ptr", ptr %3, i32 0, i32 0
  call void @llvm.memset.p0.i64(ptr align 8 %4, i8 0, i64 8, i1 false)
  call void @_ZNSt15__uniq_ptr_dataI12t_forcetableSt14default_deleteIS0_ELb1ELb1EEC2Ev(ptr noundef nonnull align 8 dereferenceable(8) %4) #16
  ret void
}

; Function Attrs: inlinehint mustprogress uwtable
define internal void @"_ZZN20DispersionCorrectionC1ERK10gmx_mtop_tRK10t_inputrecbRK19interaction_const_tPKcENK3$_0clEv"(ptr noundef nonnull align 1 dereferenceable(1) %0) #10 align 2 {
  %2 = alloca ptr, align 8
  store ptr %0, ptr %2, align 8, !tbaa !230
  call void @_ZN3gmx8internal13assertHandlerEPKcS2_S2_S2_i(ptr noundef @.str.9, ptr noundef @.str.10, ptr noundef @"__PRETTY_FUNCTION__._ZZN20DispersionCorrectionC1ERK10gmx_mtop_tRK10t_inputrecbRK19interaction_const_tPKcENK3$_0clEv", ptr noundef @.str, i32 noundef 512) #19
  unreachable
}

; Function Attrs: inlinehint mustprogress nounwind uwtable
define linkonce_odr void @_ZN20DispersionCorrection17InteractionParamsC2Ev(ptr noundef nonnull align 8 dereferenceable(32) %0) unnamed_addr #7 comdat align 2 {
  %2 = alloca ptr, align 8
  store ptr %0, ptr %2, align 8, !tbaa !4
  %3 = load ptr, ptr %2, align 8
  %4 = getelementptr inbounds nuw %"struct.DispersionCorrection::InteractionParams", ptr %3, i32 0, i32 0
  call void @_ZNSt10unique_ptrI12t_forcetableSt14default_deleteIS0_EEC2IS2_vEEv(ptr noundef nonnull align 8 dereferenceable(8) %4) #16
  %5 = getelementptr inbounds nuw %"struct.DispersionCorrection::InteractionParams", ptr %3, i32 0, i32 1
  store float 0.000000e+00, ptr %5, align 8, !tbaa !386
  %6 = getelementptr inbounds nuw %"struct.DispersionCorrection::InteractionParams", ptr %3, i32 0, i32 2
  store float 0.000000e+00, ptr %6, align 4, !tbaa !394
  %7 = getelementptr inbounds nuw %"struct.DispersionCorrection::InteractionParams", ptr %3, i32 0, i32 3
  store float 0.000000e+00, ptr %7, align 8, !tbaa !398
  %8 = getelementptr inbounds nuw %"struct.DispersionCorrection::InteractionParams", ptr %3, i32 0, i32 4
  store float 0.000000e+00, ptr %8, align 4, !tbaa !399
  %9 = getelementptr inbounds nuw %"struct.DispersionCorrection::InteractionParams", ptr %3, i32 0, i32 5
  store float 0.000000e+00, ptr %9, align 8, !tbaa !400
  %10 = getelementptr inbounds nuw %"struct.DispersionCorrection::InteractionParams", ptr %3, i32 0, i32 6
  store float 0.000000e+00, ptr %10, align 4, !tbaa !401
  ret void
}

; Function Attrs: mustprogress uwtable
define void @_ZN20DispersionCorrectionC2ERK10gmx_mtop_tRK10t_inputrecbRK19interaction_const_tPKc(ptr noundef nonnull align 8 dereferenceable(72) %0, ptr noundef nonnull align 8 dereferenceable(768) %1, ptr noundef nonnull align 8 dereferenceable(880) %2, i1 noundef zeroext %3, ptr noundef nonnull align 8 dereferenceable(152) %4, ptr noundef %5) unnamed_addr #5 align 2 personality ptr @__gxx_personality_v0 {
  %7 = alloca ptr, align 8
  %8 = alloca ptr, align 8
  %9 = alloca ptr, align 8
  %10 = alloca i8, align 1
  %11 = alloca ptr, align 8
  %12 = alloca ptr, align 8
  %13 = alloca %class.anon, align 1
  %14 = alloca ptr, align 8
  %15 = alloca i32, align 4
  store ptr %0, ptr %7, align 8, !tbaa !412
  store ptr %1, ptr %8, align 8, !tbaa !32
  store ptr %2, ptr %9, align 8, !tbaa !34
  %16 = zext i1 %3 to i8
  store i8 %16, ptr %10, align 1, !tbaa !36
  store ptr %4, ptr %11, align 8, !tbaa !355
  store ptr %5, ptr %12, align 8, !tbaa !268
  %17 = load ptr, ptr %7, align 8
  %18 = getelementptr inbounds nuw %class.DispersionCorrection, ptr %17, i32 0, i32 0
  %19 = load ptr, ptr %9, align 8, !tbaa !34
  %20 = getelementptr inbounds nuw %struct.t_inputrec, ptr %19, i32 0, i32 59
  %21 = load i32, ptr %20, align 8, !tbaa !414
  store i32 %21, ptr %18, align 8, !tbaa !415
  %22 = getelementptr inbounds nuw %class.DispersionCorrection, ptr %17, i32 0, i32 1
  %23 = load ptr, ptr %9, align 8, !tbaa !34
  %24 = getelementptr inbounds nuw %struct.t_inputrec, ptr %23, i32 0, i32 55
  %25 = load i32, ptr %24, align 8, !tbaa !417
  store i32 %25, ptr %22, align 4, !tbaa !418
  %26 = getelementptr inbounds nuw %class.DispersionCorrection, ptr %17, i32 0, i32 2
  %27 = load ptr, ptr %9, align 8, !tbaa !34
  %28 = getelementptr inbounds nuw %struct.t_inputrec, ptr %27, i32 0, i32 62
  %29 = load i32, ptr %28, align 4, !tbaa !190
  store i32 %29, ptr %26, align 8, !tbaa !419
  %30 = getelementptr inbounds nuw %class.DispersionCorrection, ptr %17, i32 0, i32 3
  %31 = load ptr, ptr %8, align 8, !tbaa !32
  %32 = load ptr, ptr %9, align 8, !tbaa !34
  %33 = load i8, ptr %10, align 1, !tbaa !36, !range !95, !noundef !96
  %34 = trunc i8 %33 to i1
  call void @_ZN20DispersionCorrection14TopologyParamsC1ERK10gmx_mtop_tRK10t_inputrecb(ptr noundef nonnull align 4 dereferenceable(24) %30, ptr noundef nonnull align 8 dereferenceable(768) %31, ptr noundef nonnull align 8 dereferenceable(880) %32, i1 noundef zeroext %34)
  %35 = getelementptr inbounds nuw %class.DispersionCorrection, ptr %17, i32 0, i32 4
  call void @_ZN20DispersionCorrection17InteractionParamsC2Ev(ptr noundef nonnull align 8 dereferenceable(32) %35) #16
  %36 = getelementptr inbounds nuw %class.DispersionCorrection, ptr %17, i32 0, i32 0
  %37 = load i32, ptr %36, align 8, !tbaa !415
  %38 = icmp ne i32 %37, 0
  br i1 %38, label %39, label %58

39:                                               ; preds = %6
  %40 = load ptr, ptr %12, align 8, !tbaa !268
  %41 = icmp ne ptr %40, null
  call void @llvm.lifetime.start.p0(i64 1, ptr %13) #16
  br i1 %41, label %42, label %43

42:                                               ; preds = %39
  br label %45

43:                                               ; preds = %39
  invoke void @"_ZZN20DispersionCorrectionC1ERK10gmx_mtop_tRK10t_inputrecbRK19interaction_const_tPKcENK3$_0clEv"(ptr noundef nonnull align 1 dereferenceable(1) %13)
          to label %44 unwind label %50

44:                                               ; preds = %43
  br label %45

45:                                               ; preds = %44, %42
  call void @llvm.lifetime.end.p0(i64 1, ptr %13) #16
  %46 = getelementptr inbounds nuw %class.DispersionCorrection, ptr %17, i32 0, i32 4
  %47 = load ptr, ptr %11, align 8, !tbaa !355
  %48 = load ptr, ptr %12, align 8, !tbaa !268
  invoke void @_ZN20DispersionCorrection24setInteractionParametersEPNS_17InteractionParamsERK19interaction_const_tPKc(ptr noundef %46, ptr noundef nonnull align 8 dereferenceable(152) %47, ptr noundef %48)
          to label %49 unwind label %54

49:                                               ; preds = %45
  br label %58

50:                                               ; preds = %43
  %51 = landingpad { ptr, i32 }
          cleanup
  %52 = extractvalue { ptr, i32 } %51, 0
  store ptr %52, ptr %14, align 8
  %53 = extractvalue { ptr, i32 } %51, 1
  store i32 %53, ptr %15, align 4
  call void @llvm.lifetime.end.p0(i64 1, ptr %13) #16
  br label %59

54:                                               ; preds = %45
  %55 = landingpad { ptr, i32 }
          cleanup
  %56 = extractvalue { ptr, i32 } %55, 0
  store ptr %56, ptr %14, align 8
  %57 = extractvalue { ptr, i32 } %55, 1
  store i32 %57, ptr %15, align 4
  br label %59

58:                                               ; preds = %49, %6
  ret void

59:                                               ; preds = %54, %50
  call void @_ZN20DispersionCorrection17InteractionParamsD1Ev(ptr noundef nonnull align 8 dereferenceable(32) %35) #16
  br label %60

60:                                               ; preds = %59
  %61 = load ptr, ptr %14, align 8
  %62 = load i32, ptr %15, align 4
  %63 = insertvalue { ptr, i32 } poison, ptr %61, 0
  %64 = insertvalue { ptr, i32 } %63, i32 %62, 1
  resume { ptr, i32 } %64
}