; Function Attrs: mustprogress uwtable
define void @_ZN20DispersionCorrectionC2ERK10gmx_mtop_tRK10t_inputrecbRK19interaction_const_tPKc(ptr noundef nonnull align 8 dereferenceable(72) initializes((0, 12)) %0, ptr noundef nonnull align 8 dereferenceable(768) %1, ptr noundef nonnull align 8 dereferenceable(880) %2, i1 noundef zeroext %3, ptr noundef nonnull align 8 dereferenceable(152) %4, ptr noundef %5) unnamed_addr #4 align 2 personality ptr @__gxx_personality_v0 {
  %7 = getelementptr inbounds nuw i8, ptr %2, i64 408
  %8 = load i32, ptr %7, align 8, !tbaa !254
  store i32 %8, ptr %0, align 8, !tbaa !255
  %9 = getelementptr inbounds nuw i8, ptr %0, i64 4
  %10 = getelementptr inbounds nuw i8, ptr %2, i64 392
  %11 = load i32, ptr %10, align 8, !tbaa !257
  store i32 %11, ptr %9, align 4, !tbaa !258
  %12 = getelementptr inbounds nuw i8, ptr %0, i64 8
  %13 = getelementptr inbounds nuw i8, ptr %2, i64 420
  %14 = load i32, ptr %13, align 4, !tbaa !197
  store i32 %14, ptr %12, align 8, !tbaa !259
  %15 = getelementptr inbounds nuw i8, ptr %0, i64 12
  tail call void @_ZN20DispersionCorrection14TopologyParamsC1ERK10gmx_mtop_tRK10t_inputrecb(ptr noundef nonnull align 4 dereferenceable(24) %15, ptr noundef nonnull align 8 dereferenceable(768) %1, ptr noundef nonnull align 8 dereferenceable(880) %2, i1 noundef zeroext %3)
  %16 = getelementptr inbounds nuw i8, ptr %0, i64 40
  tail call void @llvm.memset.p0.i64(ptr noundef nonnull align 8 dereferenceable(32) %16, i8 0, i64 32, i1 false)
  %17 = load i32, ptr %0, align 8, !tbaa !255
  %.not = icmp eq i32 %17, 0
  br i1 %.not, label %25, label %18

18:                                               ; preds = %6
  %.not12 = icmp eq ptr %5, null
  br i1 %.not12, label %19, label %20

19:                                               ; preds = %18
  invoke void @_ZN3gmx8internal13assertHandlerEPKcS2_S2_S2_i(ptr noundef nonnull @.str.9, ptr noundef nonnull @.str.10, ptr noundef nonnull @"__PRETTY_FUNCTION__._ZZN20DispersionCorrectionC1ERK10gmx_mtop_tRK10t_inputrecbRK19interaction_const_tPKcENK3$_0clEv", ptr noundef nonnull @.str, i32 noundef 512) #19
          to label %.noexc unwind label %21

.noexc:                                           ; preds = %19
  unreachable

20:                                               ; preds = %18
  invoke void @_ZN20DispersionCorrection24setInteractionParametersEPNS_17InteractionParamsERK19interaction_const_tPKc(ptr noundef nonnull %16, ptr noundef nonnull align 8 dereferenceable(152) %4, ptr noundef nonnull %5)
          to label %25 unwind label %23

21:                                               ; preds = %19
  %22 = landingpad { ptr, i32 }
          cleanup
  br label %26

23:                                               ; preds = %20
  %24 = landingpad { ptr, i32 }
          cleanup
  br label %26

25:                                               ; preds = %20, %6
  ret void

26:                                               ; preds = %23, %21
  %.pn = phi { ptr, i32 } [ %24, %23 ], [ %22, %21 ]
  tail call void @_ZN20DispersionCorrection17InteractionParamsD1Ev(ptr noundef nonnull align 8 dereferenceable(32) %16) #17
  resume { ptr, i32 } %.pn
}